; ModuleID = '5/134.c'
source_filename = "5/134.c"
target datalayout = "e-m:e-p270:32:32-p271:32:32-p272:64:64-i64:64-f80:128-n8:16:32:64-S128"
target triple = "x86_64-pc-linux-gnu"

@.str = private unnamed_addr constant [4 x i8] c"%lf\00", align 1
@.str.1 = private unnamed_addr constant [3 x i8] c"%s\00", align 1
@.str.2 = private unnamed_addr constant [6 x i8] c"error\00", align 1
@.str.3 = private unnamed_addr constant [4 x i8] c"yes\00", align 1
@.str.4 = private unnamed_addr constant [3 x i8] c"no\00", align 1

; Function Attrs: noinline nounwind uwtable
define dso_local i32 @main() #0 {
  %1 = alloca i32, align 4
  %2 = alloca double, align 8
  %3 = alloca [2 x [501 x i8]], align 16
  %4 = alloca i32, align 4
  %5 = alloca i32, align 4
  %6 = alloca i32, align 4
  %7 = alloca i32, align 4
  %8 = alloca i32, align 4
  %9 = alloca double, align 8
  store i32 0, i32* %1, align 4
  %10 = call i32 (i8*, ...) @__isoc99_scanf(i8* getelementptr inbounds ([4 x i8], [4 x i8]* @.str, i64 0, i64 0), double* %2)
  %11 = getelementptr inbounds [2 x [501 x i8]], [2 x [501 x i8]]* %3, i64 0, i64 0
  %12 = getelementptr inbounds [501 x i8], [501 x i8]* %11, i64 0, i64 0
  %13 = call i32 (i8*, ...) @__isoc99_scanf(i8* getelementptr inbounds ([3 x i8], [3 x i8]* @.str.1, i64 0, i64 0), i8* %12)
  %14 = getelementptr inbounds [2 x [501 x i8]], [2 x [501 x i8]]* %3, i64 0, i64 1
  %15 = getelementptr inbounds [501 x i8], [501 x i8]* %14, i64 0, i64 0
  %16 = call i32 (i8*, ...) @__isoc99_scanf(i8* getelementptr inbounds ([3 x i8], [3 x i8]* @.str.1, i64 0, i64 0), i8* %15)
  store i32 0, i32* %7, align 4
  %17 = getelementptr inbounds [2 x [501 x i8]], [2 x [501 x i8]]* %3, i64 0, i64 0
  %18 = getelementptr inbounds [501 x i8], [501 x i8]* %17, i64 0, i64 0
  %19 = call i64 @strlen(i8* %18) #3
  %20 = trunc i64 %19 to i32
  store i32 %20, i32* %4, align 4
  %21 = getelementptr inbounds [2 x [501 x i8]], [2 x [501 x i8]]* %3, i64 0, i64 1
  %22 = getelementptr inbounds [501 x i8], [501 x i8]* %21, i64 0, i64 0
  %23 = call i64 @strlen(i8* %22) #3
  %24 = trunc i64 %23 to i32
  store i32 %24, i32* %8, align 4
  %25 = load i32, i32* %4, align 4
  %26 = load i32, i32* %8, align 4
  %27 = icmp ne i32 %25, %26
  br i1 %27, label %28, label %30

28:                                               ; preds = %0
  %29 = call i32 (i8*, ...) @printf(i8* getelementptr inbounds ([6 x i8], [6 x i8]* @.str.2, i64 0, i64 0))
  store i32 0, i32* %1, align 4
  br label %139

30:                                               ; preds = %0
  store i32 0, i32* %5, align 4
  br label %31

31:                                               ; preds = %121, %30
  %32 = load i32, i32* %5, align 4
  %33 = load i32, i32* %4, align 4
  %34 = icmp slt i32 %32, %33
  br i1 %34, label %35, label %124

35:                                               ; preds = %31
  %36 = getelementptr inbounds [2 x [501 x i8]], [2 x [501 x i8]]* %3, i64 0, i64 0
  %37 = load i32, i32* %5, align 4
  %38 = sext i32 %37 to i64
  %39 = getelementptr inbounds [501 x i8], [501 x i8]* %36, i64 0, i64 %38
  %40 = load i8, i8* %39, align 1
  %41 = sext i8 %40 to i32
  %42 = icmp ne i32 %41, 65
  br i1 %42, label %43, label %69

43:                                               ; preds = %35
  %44 = getelementptr inbounds [2 x [501 x i8]], [2 x [501 x i8]]* %3, i64 0, i64 0
  %45 = load i32, i32* %5, align 4
  %46 = sext i32 %45 to i64
  %47 = getelementptr inbounds [501 x i8], [501 x i8]* %44, i64 0, i64 %46
  %48 = load i8, i8* %47, align 1
  %49 = sext i8 %48 to i32
  %50 = icmp ne i32 %49, 84
  br i1 %50, label %51, label %69

51:                                               ; preds = %43
  %52 = getelementptr inbounds [2 x [501 x i8]], [2 x [501 x i8]]* %3, i64 0, i64 0
  %53 = load i32, i32* %5, align 4
  %54 = sext i32 %53 to i64
  %55 = getelementptr inbounds [501 x i8], [501 x i8]* %52, i64 0, i64 %54
  %56 = load i8, i8* %55, align 1
  %57 = sext i8 %56 to i32
  %58 = icmp ne i32 %57, 67
  br i1 %58, label %59, label %69

59:                                               ; preds = %51
  %60 = getelementptr inbounds [2 x [501 x i8]], [2 x [501 x i8]]* %3, i64 0, i64 0
  %61 = load i32, i32* %5, align 4
  %62 = sext i32 %61 to i64
  %63 = getelementptr inbounds [501 x i8], [501 x i8]* %60, i64 0, i64 %62
  %64 = load i8, i8* %63, align 1
  %65 = sext i8 %64 to i32
  %66 = icmp ne i32 %65, 71
  br i1 %66, label %67, label %69

67:                                               ; preds = %59
  %68 = call i32 (i8*, ...) @printf(i8* getelementptr inbounds ([6 x i8], [6 x i8]* @.str.2, i64 0, i64 0))
  store i32 0, i32* %1, align 4
  br label %139

69:                                               ; preds = %59, %51, %43, %35
  %70 = getelementptr inbounds [2 x [501 x i8]], [2 x [501 x i8]]* %3, i64 0, i64 1
  %71 = load i32, i32* %5, align 4
  %72 = sext i32 %71 to i64
  %73 = getelementptr inbounds [501 x i8], [501 x i8]* %70, i64 0, i64 %72
  %74 = load i8, i8* %73, align 1
  %75 = sext i8 %74 to i32
  %76 = icmp ne i32 %75, 65
  br i1 %76, label %77, label %103

77:                                               ; preds = %69
  %78 = getelementptr inbounds [2 x [501 x i8]], [2 x [501 x i8]]* %3, i64 0, i64 1
  %79 = load i32, i32* %5, align 4
  %80 = sext i32 %79 to i64
  %81 = getelementptr inbounds [501 x i8], [501 x i8]* %78, i64 0, i64 %80
  %82 = load i8, i8* %81, align 1
  %83 = sext i8 %82 to i32
  %84 = icmp ne i32 %83, 84
  br i1 %84, label %85, label %103

85:                                               ; preds = %77
  %86 = getelementptr inbounds [2 x [501 x i8]], [2 x [501 x i8]]* %3, i64 0, i64 1
  %87 = load i32, i32* %5, align 4
  %88 = sext i32 %87 to i64
  %89 = getelementptr inbounds [501 x i8], [501 x i8]* %86, i64 0, i64 %88
  %90 = load i8, i8* %89, align 1
  %91 = sext i8 %90 to i32
  %92 = icmp ne i32 %91, 67
  br i1 %92, label %93, label %103

93:                                               ; preds = %85
  %94 = getelementptr inbounds [2 x [501 x i8]], [2 x [501 x i8]]* %3, i64 0, i64 1
  %95 = load i32, i32* %5, align 4
  %96 = sext i32 %95 to i64
  %97 = getelementptr inbounds [501 x i8], [501 x i8]* %94, i64 0, i64 %96
  %98 = load i8, i8* %97, align 1
  %99 = sext i8 %98 to i32
  %100 = icmp ne i32 %99, 71
  br i1 %100, label %101, label %103

101:                                              ; preds = %93
  %102 = call i32 (i8*, ...) @printf(i8* getelementptr inbounds ([6 x i8], [6 x i8]* @.str.2, i64 0, i64 0))
  store i32 0, i32* %1, align 4
  br label %139

103:                                              ; preds = %93, %85, %77, %69
  %104 = getelementptr inbounds [2 x [501 x i8]], [2 x [501 x i8]]* %3, i64 0, i64 0
  %105 = load i32, i32* %5, align 4
  %106 = sext i32 %105 to i64
  %107 = getelementptr inbounds [501 x i8], [501 x i8]* %104, i64 0, i64 %106
  %108 = load i8, i8* %107, align 1
  %109 = sext i8 %108 to i32
  %110 = getelementptr inbounds [2 x [501 x i8]], [2 x [501 x i8]]* %3, i64 0, i64 1
  %111 = load i32, i32* %5, align 4
  %112 = sext i32 %111 to i64
  %113 = getelementptr inbounds [501 x i8], [501 x i8]* %110, i64 0, i64 %112
  %114 = load i8, i8* %113, align 1
  %115 = sext i8 %114 to i32
  %116 = icmp eq i32 %109, %115
  br i1 %116, label %117, label %120

117:                                              ; preds = %103
  %118 = load i32, i32* %7, align 4
  %119 = add nsw i32 %118, 1
  store i32 %119, i32* %7, align 4
  br label %120

120:                                              ; preds = %117, %103
  br label %121

121:                                              ; preds = %120
  %122 = load i32, i32* %5, align 4
  %123 = add nsw i32 %122, 1
  store i32 %123, i32* %5, align 4
  br label %31

124:                                              ; preds = %31
  %125 = load i32, i32* %7, align 4
  %126 = sitofp i32 %125 to double
  %127 = fmul double 1.000000e+00, %126
  %128 = load i32, i32* %4, align 4
  %129 = sitofp i32 %128 to double
  %130 = fdiv double %127, %129
  store double %130, double* %9, align 8
  %131 = load double, double* %9, align 8
  %132 = load double, double* %2, align 8
  %133 = fcmp oge double %131, %132
  br i1 %133, label %134, label %136

134:                                              ; preds = %124
  %135 = call i32 (i8*, ...) @printf(i8* getelementptr inbounds ([4 x i8], [4 x i8]* @.str.3, i64 0, i64 0))
  br label %138

136:                                              ; preds = %124
  %137 = call i32 (i8*, ...) @printf(i8* getelementptr inbounds ([3 x i8], [3 x i8]* @.str.4, i64 0, i64 0))
  br label %138

138:                                              ; preds = %136, %134
  store i32 0, i32* %1, align 4
  br label %139

139:                                              ; preds = %138, %101, %67, %28
  %140 = load i32, i32* %1, align 4
  ret i32 %140
}

declare dso_local i32 @__isoc99_scanf(i8*, ...) #1

; Function Attrs: nounwind readonly
declare dso_local i64 @strlen(i8*) #2

declare dso_local i32 @printf(i8*, ...) #1


!llvm.module.flags = !{!0}
!llvm.ident = !{!1}

!0 = !{i32 1, !"wchar_size", i32 4}
!1 = !{!"clang version 10.0.0-4ubuntu1 "}
